target datalayout = "e-m:e-p270:32:32-p271:32:32-p272:64:64-i64:64-i128:128-f80:128-n8:16:32:64-S128"
target triple = "x86_64-pc-linux-gnu"

%struct.ImVec4 = type { float, float, float, float }
%struct.ImVector = type { i32, i32, ptr }
%struct.ImDrawCmd = type { %struct.ImVec4, ptr, i32, i32, i32, ptr, ptr }
%struct.ImDrawList = type { %struct.ImVector.0, %struct.ImVector.1, %struct.ImVector.2, i32, i32, ptr, ptr, ptr, %struct.ImVector, %struct.ImDrawCmdHeader, %struct.ImDrawListSplitter, %struct.ImVector.4, %struct.ImVector.5, float, ptr }
%struct.ImVector.0 = type { i32, i32, ptr }
%struct.ImVector.1 = type { i32, i32, ptr }
%struct.ImVector.2 = type { i32, i32, ptr }
%struct.ImDrawCmdHeader = type <{ %struct.ImVec4, ptr, i32, [4 x i8] }>
%struct.ImDrawListSplitter = type { i32, i32, %struct.ImVector.3 }
%struct.ImVector.3 = type { i32, i32, ptr }
%struct.ImVector.4 = type { i32, i32, ptr }
%struct.ImVector.5 = type { i32, i32, ptr }

; Function Attrs: inlinehint mustprogress nounwind uwtable
define linkonce_odr dso_local void @_ZN8ImVectorItE6shrinkEi(ptr noundef nonnull align 8 dereferenceable(16) %0, i32 noundef %1) #7 comdat align 2 {
  %3 = alloca ptr, align 8
  %4 = alloca i32, align 4
  store ptr %0, ptr %3, align 8, !tbaa !93
  store i32 %1, ptr %4, align 4, !tbaa !21
  %5 = load ptr, ptr %3, align 8
  %6 = load i32, ptr %4, align 4, !tbaa !21
  %7 = getelementptr inbounds nuw %struct.ImVector.1, ptr %5, i32 0, i32 0
  store i32 %6, ptr %7, align 8, !tbaa !96
  ret void
}

; Function Attrs: inlinehint mustprogress nounwind uwtable
define linkonce_odr dso_local void @_ZN8ImVectorI10ImDrawVertE6shrinkEi(ptr noundef nonnull align 8 dereferenceable(16) %0, i32 noundef %1) #7 comdat align 2 {
  %3 = alloca ptr, align 8
  %4 = alloca i32, align 4
  store ptr %0, ptr %3, align 8, !tbaa !97
  store i32 %1, ptr %4, align 4, !tbaa !21
  %5 = load ptr, ptr %3, align 8
  %6 = load i32, ptr %4, align 4, !tbaa !21
  %7 = getelementptr inbounds nuw %struct.ImVector.2, ptr %5, i32 0, i32 0
  store i32 %6, ptr %7, align 8, !tbaa !100
  ret void
}

; Function Attrs: mustprogress uwtable
define dso_local void @_ZN10ImDrawList13PrimUnreserveEii(ptr noundef nonnull align 8 dereferenceable(200) %0, i32 noundef %1, i32 noundef %2) #6 align 2 {
  %4 = alloca ptr, align 8
  %5 = alloca i32, align 4
  %6 = alloca i32, align 4
  %7 = alloca ptr, align 8
  store ptr %0, ptr %4, align 8, !tbaa !43
  store i32 %1, ptr %5, align 4, !tbaa !21
  store i32 %2, ptr %6, align 4, !tbaa !21
  %8 = load ptr, ptr %4, align 8
  call void @llvm.lifetime.start.p0(i64 8, ptr %7) #17
  %9 = getelementptr inbounds nuw %struct.ImDrawList, ptr %8, i32 0, i32 0
  %10 = getelementptr inbounds nuw %struct.ImVector.0, ptr %9, i32 0, i32 2
  %11 = load ptr, ptr %10, align 8, !tbaa !84
  %12 = getelementptr inbounds nuw %struct.ImDrawList, ptr %8, i32 0, i32 0
  %13 = getelementptr inbounds nuw %struct.ImVector.0, ptr %12, i32 0, i32 0
  %14 = load i32, ptr %13, align 8, !tbaa !70
  %15 = sub nsw i32 %14, 1
  %16 = sext i32 %15 to i64
  %17 = getelementptr inbounds %struct.ImDrawCmd, ptr %11, i64 %16
  store ptr %17, ptr %7, align 8, !tbaa !71
  %18 = load i32, ptr %5, align 4, !tbaa !21
  %19 = load ptr, ptr %7, align 8, !tbaa !71
  %20 = getelementptr inbounds nuw %struct.ImDrawCmd, ptr %19, i32 0, i32 4
  %21 = load i32, ptr %20, align 8, !tbaa !74
  %22 = sub i32 %21, %18
  store i32 %22, ptr %20, align 8, !tbaa !74
  %23 = getelementptr inbounds nuw %struct.ImDrawList, ptr %8, i32 0, i32 2
  %24 = getelementptr inbounds nuw %struct.ImDrawList, ptr %8, i32 0, i32 2
  %25 = getelementptr inbounds nuw %struct.ImVector.2, ptr %24, i32 0, i32 0
  %26 = load i32, ptr %25, align 8, !tbaa !138
  %27 = load i32, ptr %6, align 4, !tbaa !21
  %28 = sub nsw i32 %26, %27
  call void @_ZN8ImVectorI10ImDrawVertE6shrinkEi(ptr noundef nonnull align 8 dereferenceable(16) %23, i32 noundef %28)
  %29 = getelementptr inbounds nuw %struct.ImDrawList, ptr %8, i32 0, i32 1
  %30 = getelementptr inbounds nuw %struct.ImDrawList, ptr %8, i32 0, i32 1
  %31 = getelementptr inbounds nuw %struct.ImVector.1, ptr %30, i32 0, i32 0
  %32 = load i32, ptr %31, align 8, !tbaa !83
  %33 = load i32, ptr %5, align 4, !tbaa !21
  %34 = sub nsw i32 %32, %33
  call void @_ZN8ImVectorItE6shrinkEi(ptr noundef nonnull align 8 dereferenceable(16) %29, i32 noundef %34)
  call void @llvm.lifetime.end.p0(i64 8, ptr %7) #17
  ret void
}