; Function Attrs: mustprogress nofree norecurse nosync nounwind willreturn memory(readwrite, inaccessiblemem: none) uwtable
define dso_local void @_ZN10ImDrawList13PrimUnreserveEii(ptr noundef nonnull align 8 captures(none) dereferenceable(200) %0, i32 noundef %1, i32 noundef %2) local_unnamed_addr #13 align 2 {
  %4 = getelementptr inbounds nuw i8, ptr %0, i64 8
  %5 = load ptr, ptr %4, align 8, !tbaa !67
  %6 = load i32, ptr %0, align 8, !tbaa !66
  %7 = sext i32 %6 to i64
  %8 = getelementptr %struct.ImDrawCmd, ptr %5, i64 %7
  %9 = getelementptr i8, ptr %8, i64 -24
  %10 = load i32, ptr %9, align 8, !tbaa !68
  %11 = sub i32 %10, %1
  store i32 %11, ptr %9, align 8, !tbaa !68
  %12 = getelementptr inbounds nuw i8, ptr %0, i64 32
  %13 = load i32, ptr %12, align 8, !tbaa !101
  %14 = sub nsw i32 %13, %2
  store i32 %14, ptr %12, align 8, !tbaa !49
  %15 = getelementptr inbounds nuw i8, ptr %0, i64 16
  %16 = load i32, ptr %15, align 8, !tbaa !72
  %17 = sub nsw i32 %16, %1
  store i32 %17, ptr %15, align 8, !tbaa !46
  ret void
}